target datalayout = "e-m:e-p270:32:32-p271:32:32-p272:64:64-i64:64-i128:128-f80:128-n8:16:32:64-S128"
target triple = "x86_64-unknown-linux-gnu"

%struct.anon = type { %"class.std::__cxx11::basic_string", %"class.std::__cxx11::basic_string" }
%"class.std::__cxx11::basic_string" = type { %"struct.std::__cxx11::basic_string<char>::_Alloc_hider", i64, %union.anon }
%"struct.std::__cxx11::basic_string<char>::_Alloc_hider" = type { ptr }
%union.anon = type { i64, [8 x i8] }

@_ZZN4YAML7convertIbE6decodeERKNS_4NodeERbE5names = internal global [4 x %struct.anon] zeroinitializer, align 16

; Function Attrs: mustprogress nounwind uwtable
define internal void @"_ZZN4YAML7convertIbE6decodeERKNS_4NodeERbEN3$_0D2Ev"(ptr noundef nonnull align 8 dereferenceable(64) %this) unnamed_addr #4 align 2 {
entry:
  %this.addr = alloca ptr, align 8
  store ptr %this, ptr %this.addr, align 8
  %this1 = load ptr, ptr %this.addr, align 8
  %falsename = getelementptr inbounds %struct.anon, ptr %this1, i32 0, i32 1
  call void @_ZNSt7__cxx1112basic_stringIcSt11char_traitsIcESaIcEED1Ev(ptr noundef nonnull align 8 dereferenceable(32) %falsename) #1
  %truename = getelementptr inbounds %struct.anon, ptr %this1, i32 0, i32 0
  call void @_ZNSt7__cxx1112basic_stringIcSt11char_traitsIcESaIcEED1Ev(ptr noundef nonnull align 8 dereferenceable(32) %truename) #1
  ret void
}

; Function Attrs: uwtable
define internal void @__cxx_global_array_dtor(ptr noundef %0) #5 section ".text.startup" {
entry:
  %.addr = alloca ptr, align 8
  store ptr %0, ptr %.addr, align 8
  br label %arraydestroy.body

arraydestroy.body:                                ; preds = %arraydestroy.body, %entry
  %arraydestroy.elementPast = phi ptr [ getelementptr inbounds (%struct.anon, ptr @_ZZN4YAML7convertIbE6decodeERKNS_4NodeERbE5names, i64 4), %entry ], [ %arraydestroy.element, %arraydestroy.body ]
  %arraydestroy.element = getelementptr inbounds %struct.anon, ptr %arraydestroy.elementPast, i64 -1
  call void @"_ZZN4YAML7convertIbE6decodeERKNS_4NodeERbEN3$_0D2Ev"(ptr noundef nonnull align 8 dereferenceable(64) %arraydestroy.element) #1
  %arraydestroy.done = icmp eq ptr %arraydestroy.element, @_ZZN4YAML7convertIbE6decodeERKNS_4NodeERbE5names
  br i1 %arraydestroy.done, label %arraydestroy.done1, label %arraydestroy.body

arraydestroy.done1:                               ; preds = %arraydestroy.body
  ret void
}